; Function Attrs: mustprogress uwtable
define internal void @_ZL16cq_shutdown_nextP21grpc_completion_queue(ptr noundef %0) #8 {
  %2 = atomicrmw add ptr %0, i64 1 monotonic, align 8
  %3 = getelementptr inbounds nuw i8, ptr %0, i64 72
  %4 = load ptr, ptr %3, align 8, !tbaa !39
  tail call void @gpr_mu_lock(ptr noundef %4)
  %5 = getelementptr inbounds nuw i8, ptr %0, i64 376
  %6 = load i8, ptr %5, align 8, !tbaa !63, !range !56, !noundef !57
  %7 = trunc nuw i8 %6 to i1
  br i1 %7, label %8, label %12

8:                                                ; preds = %1
  %9 = load ptr, ptr %3, align 8, !tbaa !39
  tail call void @gpr_mu_unlock(ptr noundef %9)
  %10 = atomicrmw sub ptr %0, i64 1 acq_rel, align 8
  %11 = icmp eq i64 %10, 1
  br i1 %11, label %_Z22grpc_cq_internal_unrefP21grpc_completion_queue.exit.sink.split, label %_Z22grpc_cq_internal_unrefP21grpc_completion_queue.exit, !prof !33

12:                                               ; preds = %1
  store i8 1, ptr %5, align 8, !tbaa !63
  %13 = getelementptr inbounds nuw i8, ptr %0, i64 368
  %14 = atomicrmw sub ptr %13, i64 1 acq_rel, align 8
  %15 = icmp eq i64 %14, 1
  br i1 %15, label %16, label %17

16:                                               ; preds = %12
  tail call fastcc void @_ZL23cq_finish_shutdown_nextP21grpc_completion_queue(ptr noundef nonnull %0)
  br label %17

17:                                               ; preds = %16, %12
  %18 = load ptr, ptr %3, align 8, !tbaa !39
  tail call void @gpr_mu_unlock(ptr noundef %18)
  %19 = atomicrmw sub ptr %0, i64 1 acq_rel, align 8
  %20 = icmp eq i64 %19, 1
  br i1 %20, label %_Z22grpc_cq_internal_unrefP21grpc_completion_queue.exit.sink.split, label %_Z22grpc_cq_internal_unrefP21grpc_completion_queue.exit, !prof !33

_Z22grpc_cq_internal_unrefP21grpc_completion_queue.exit.sink.split: ; preds = %17, %8
  %21 = getelementptr inbounds nuw i8, ptr %0, i64 144
  %22 = load ptr, ptr %21, align 8, !tbaa !48
  %23 = getelementptr inbounds nuw i8, ptr %22, i64 32
  %24 = load ptr, ptr %23, align 8, !tbaa !49
  %25 = getelementptr inbounds nuw i8, ptr %0, i64 264
  tail call void %24(ptr noundef nonnull %25)
  %26 = getelementptr inbounds nuw i8, ptr %0, i64 216
  %27 = load ptr, ptr %26, align 8, !tbaa !52
  %28 = getelementptr inbounds nuw i8, ptr %27, i64 48
  %29 = load ptr, ptr %28, align 8, !tbaa !53
  %30 = load ptr, ptr %21, align 8, !tbaa !48
  %31 = getelementptr inbounds nuw i8, ptr %30, i64 8
  %32 = load i64, ptr %31, align 8, !tbaa !55
  %33 = getelementptr inbounds nuw i8, ptr %25, i64 %32
  tail call void %29(ptr noundef nonnull %33)
  tail call void @gpr_free(ptr noundef nonnull %0)
  br label %_Z22grpc_cq_internal_unrefP21grpc_completion_queue.exit

_Z22grpc_cq_internal_unrefP21grpc_completion_queue.exit: ; preds = %_Z22grpc_cq_internal_unrefP21grpc_completion_queue.exit.sink.split, %17, %8
  ret void
}